target datalayout = "e-m:e-p270:32:32-p271:32:32-p272:64:64-i64:64-i128:128-f80:128-n8:16:32:64-S128"
target triple = "x86_64-pc-linux-gnu"

%"class.gmx::FlagsTemplate" = type { i64 }
%"class.std::__cxx11::basic_string" = type { %"struct.std::__cxx11::basic_string<char>::_Alloc_hider", i64, %union.anon }
%"struct.std::__cxx11::basic_string<char>::_Alloc_hider" = type { ptr }
%union.anon = type { i64, [8 x i8] }
%"class.gmx::AbstractOptionStorage" = type <{ ptr, %"class.std::__cxx11::basic_string", %"class.std::__cxx11::basic_string", %"class.gmx::FlagsTemplate", ptr, i32, i32, i8, i8, [6 x i8] }>
%class.anon.3 = type { i8 }

@.str.1 = private unnamed_addr constant [132 x i8] c"generated/home/dtcxzyw/WorkSpace/Projects/compilers/llvm-opt-benchmark/bench/gromacs/gromacs/src/gromacs/options/abstractoption.cpp\00", align 1
@_ZTISt9exception = external constant ptr
@.str.9 = private unnamed_addr constant [8 x i8] c"bInSet_\00", align 1
@.str.10 = private unnamed_addr constant [22 x i8] c"startSet() not called\00", align 1
@"__PRETTY_FUNCTION__._ZZN3gmx21AbstractOptionStorage11appendValueERKNS_3AnyEENK3$_0clEv" = private unnamed_addr constant [97 x i8] c"auto gmx::AbstractOptionStorage::appendValue(const Any &)::(anonymous class)::operator()() const\00", align 1

; Function Attrs: inlinehint mustprogress uwtable
define internal void @"_ZZN3gmx21AbstractOptionStorage11appendValueERKNS_3AnyEENK3$_0clEv"(ptr noundef nonnull align 1 dereferenceable(1) %0) #2 align 2 {
  %2 = alloca ptr, align 8
  store ptr %0, ptr %2, align 8, !tbaa !57
  call void @_ZN3gmx8internal13assertHandlerEPKcS2_S2_S2_i(ptr noundef @.str.9, ptr noundef @.str.10, ptr noundef @"__PRETTY_FUNCTION__._ZZN3gmx21AbstractOptionStorage11appendValueERKNS_3AnyEENK3$_0clEv", ptr noundef @.str.1, i32 noundef 121) #20
  unreachable
}

; Function Attrs: mustprogress uwtable
define void @_ZN3gmx21AbstractOptionStorage11appendValueERKNS_3AnyE(ptr noundef nonnull align 8 dereferenceable(98) %0, ptr noundef nonnull align 8 dereferenceable(8) %1) #0 align 2 personality ptr @__gxx_personality_v0 {
  %3 = alloca ptr, align 8
  %4 = alloca ptr, align 8
  %5 = alloca %class.anon.3, align 1
  %6 = alloca ptr, align 8
  %7 = alloca i32, align 4
  %8 = alloca ptr, align 8
  store ptr %0, ptr %3, align 8, !tbaa !3
  store ptr %1, ptr %4, align 8, !tbaa !62
  %9 = load ptr, ptr %3, align 8
  %10 = getelementptr inbounds nuw %"class.gmx::AbstractOptionStorage", ptr %9, i32 0, i32 7
  %11 = load i8, ptr %10, align 8, !tbaa !28, !range !55, !noundef !56
  %12 = trunc i8 %11 to i1
  call void @llvm.lifetime.start.p0(i64 1, ptr %5) #19
  br i1 %12, label %13, label %14

13:                                               ; preds = %2
  br label %15

14:                                               ; preds = %2
  call void @"_ZZN3gmx21AbstractOptionStorage11appendValueERKNS_3AnyEENK3$_0clEv"(ptr noundef nonnull align 1 dereferenceable(1) %5)
  br label %15

15:                                               ; preds = %14, %13
  call void @llvm.lifetime.end.p0(i64 1, ptr %5) #19
  %16 = load ptr, ptr %4, align 8, !tbaa !62
  %17 = load ptr, ptr %9, align 8, !tbaa !10
  %18 = getelementptr inbounds ptr, ptr %17, i64 10
  %19 = load ptr, ptr %18, align 8
  invoke void %19(ptr noundef nonnull align 8 dereferenceable(98) %9, ptr noundef nonnull align 8 dereferenceable(8) %16)
          to label %20 unwind label %21

20:                                               ; preds = %15
  br label %38

21:                                               ; preds = %15
  %22 = landingpad { ptr, i32 }
          catch ptr @_ZTISt9exception
  %23 = extractvalue { ptr, i32 } %22, 0
  store ptr %23, ptr %6, align 8
  %24 = extractvalue { ptr, i32 } %22, 1
  store i32 %24, ptr %7, align 4
  br label %25

25:                                               ; preds = %21
  %26 = load i32, ptr %7, align 4
  %27 = call i32 @llvm.eh.typeid.for.p0(ptr @_ZTISt9exception) #19
  %28 = icmp eq i32 %26, %27
  br i1 %28, label %29, label %39

29:                                               ; preds = %25
  call void @llvm.lifetime.start.p0(i64 8, ptr %8) #19
  %30 = load ptr, ptr %6, align 8
  %31 = call ptr @__cxa_begin_catch(ptr %30) #19
  store ptr %31, ptr %8, align 8
  %32 = getelementptr inbounds nuw %"class.gmx::AbstractOptionStorage", ptr %9, i32 0, i32 8
  store i8 1, ptr %32, align 1, !tbaa !29
  invoke void @__cxa_rethrow() #20
          to label %47 unwind label %33

33:                                               ; preds = %29
  %34 = landingpad { ptr, i32 }
          cleanup
  %35 = extractvalue { ptr, i32 } %34, 0
  store ptr %35, ptr %6, align 8
  %36 = extractvalue { ptr, i32 } %34, 1
  store i32 %36, ptr %7, align 4
  invoke void @__cxa_end_catch()
          to label %37 unwind label %44

37:                                               ; preds = %33
  call void @llvm.lifetime.end.p0(i64 8, ptr %8) #19
  br label %39

38:                                               ; preds = %20
  ret void

39:                                               ; preds = %37, %25
  %40 = load ptr, ptr %6, align 8
  %41 = load i32, ptr %7, align 4
  %42 = insertvalue { ptr, i32 } poison, ptr %40, 0
  %43 = insertvalue { ptr, i32 } %42, i32 %41, 1
  resume { ptr, i32 } %43

44:                                               ; preds = %33
  %45 = landingpad { ptr, i32 }
          catch ptr null
  %46 = extractvalue { ptr, i32 } %45, 0
  call void @__clang_call_terminate(ptr %46) #21
  unreachable

47:                                               ; preds = %29
  unreachable
}