; Function Attrs: mustprogress uwtable
define void @_ZN3gmx21AbstractOptionStorage11appendValueERKNS_3AnyE(ptr noundef nonnull align 8 dereferenceable(98) %0, ptr noundef nonnull align 8 dereferenceable(8) %1) local_unnamed_addr #0 align 2 personality ptr @__gxx_personality_v0 {
  %3 = getelementptr inbounds nuw i8, ptr %0, i64 96
  %4 = load i8, ptr %3, align 8, !tbaa !28, !range !58, !noundef !59
  %5 = trunc nuw i8 %4 to i1
  br i1 %5, label %7, label %6

6:                                                ; preds = %2
  tail call void @_ZN3gmx8internal13assertHandlerEPKcS2_S2_S2_i(ptr noundef nonnull @.str.9, ptr noundef nonnull @.str.10, ptr noundef nonnull @"__PRETTY_FUNCTION__._ZZN3gmx21AbstractOptionStorage11appendValueERKNS_3AnyEENK3$_0clEv", ptr noundef nonnull @.str.1, i32 noundef 121) #30
  unreachable

7:                                                ; preds = %2
  %8 = load ptr, ptr %0, align 8, !tbaa !3
  %9 = getelementptr inbounds nuw i8, ptr %8, i64 80
  %10 = load ptr, ptr %9, align 8
  invoke void %10(ptr noundef nonnull align 8 dereferenceable(98) %0, ptr noundef nonnull align 8 dereferenceable(8) %1)
          to label %22 unwind label %11

11:                                               ; preds = %7
  %12 = landingpad { ptr, i32 }
          catch ptr @_ZTISt9exception
  %13 = extractvalue { ptr, i32 } %12, 1
  %14 = tail call i32 @llvm.eh.typeid.for.p0(ptr nonnull @_ZTISt9exception) #29
  %15 = icmp eq i32 %13, %14
  br i1 %15, label %16, label %23

16:                                               ; preds = %11
  %17 = extractvalue { ptr, i32 } %12, 0
  %18 = tail call ptr @__cxa_begin_catch(ptr %17) #29
  %19 = getelementptr inbounds nuw i8, ptr %0, i64 97
  store i8 1, ptr %19, align 1, !tbaa !29
  invoke void @__cxa_rethrow() #30
          to label %27 unwind label %20

20:                                               ; preds = %16
  %21 = landingpad { ptr, i32 }
          cleanup
  invoke void @__cxa_end_catch()
          to label %23 unwind label %24

22:                                               ; preds = %7
  ret void

23:                                               ; preds = %20, %11
  %.merged = phi { ptr, i32 } [ %12, %11 ], [ %21, %20 ]
  resume { ptr, i32 } %.merged

24:                                               ; preds = %20
  %25 = landingpad { ptr, i32 }
          catch ptr null
  %26 = extractvalue { ptr, i32 } %25, 0
  tail call void @__clang_call_terminate(ptr %26) #33
  unreachable

27:                                               ; preds = %16
  unreachable
}